target datalayout = "e-m:e-p270:32:32-p271:32:32-p272:64:64-i64:64-i128:128-f80:128-n8:16:32:64-S128"
target triple = "x86_64-unknown-linux-gnu"

@_ZN4llvhL15offsetsFromUTF8E = internal constant [6 x i32] [i32 0, i32 12416, i32 925824, i32 63447168, i32 -100130688, i32 -2113396608], align 16

; Function Attrs: mustprogress nounwind uwtable
define hidden noundef i32 @_ZN4llvh18ConvertUTF8toUTF16EPPKhS1_PPtS3_NS_15ConversionFlagsE(ptr noundef %sourceStart, ptr noundef %sourceEnd, ptr noundef %targetStart, ptr noundef %targetEnd, i32 noundef %flags) #0 {
entry:
  %sourceStart.addr = alloca ptr, align 8
  %sourceEnd.addr = alloca ptr, align 8
  %targetStart.addr = alloca ptr, align 8
  %targetEnd.addr = alloca ptr, align 8
  %flags.addr = alloca i32, align 4
  %result = alloca i32, align 4
  %source = alloca ptr, align 8
  %target = alloca ptr, align 8
  %ch = alloca i32, align 4
  %extraBytesToRead = alloca i16, align 2
  store ptr %sourceStart, ptr %sourceStart.addr, align 8
  store ptr %sourceEnd, ptr %sourceEnd.addr, align 8
  store ptr %targetStart, ptr %targetStart.addr, align 8
  store ptr %targetEnd, ptr %targetEnd.addr, align 8
  store i32 %flags, ptr %flags.addr, align 4
  store i32 0, ptr %result, align 4
  %0 = load ptr, ptr %sourceStart.addr, align 8
  %1 = load ptr, ptr %0, align 8
  store ptr %1, ptr %source, align 8
  %2 = load ptr, ptr %targetStart.addr, align 8
  %3 = load ptr, ptr %2, align 8
  store ptr %3, ptr %target, align 8
  br label %while.cond

while.cond:                                       ; preds = %if.end89, %entry
  %4 = load ptr, ptr %source, align 8
  %5 = load ptr, ptr %sourceEnd.addr, align 8
  %cmp = icmp ult ptr %4, %5
  br i1 %cmp, label %while.body, label %while.end

while.body:                                       ; preds = %while.cond
  store i32 0, ptr %ch, align 4
  %6 = load ptr, ptr %source, align 8
  %7 = load i8, ptr %6, align 1
  %idxprom = zext i8 %7 to i64
  %arrayidx = getelementptr inbounds [256 x i8], ptr @_ZN4llvhL20trailingBytesForUTF8E, i64 0, i64 %idxprom
  %8 = load i8, ptr %arrayidx, align 1
  %conv = sext i8 %8 to i16
  store i16 %conv, ptr %extraBytesToRead, align 2
  %9 = load i16, ptr %extraBytesToRead, align 2
  %conv1 = zext i16 %9 to i64
  %10 = load ptr, ptr %sourceEnd.addr, align 8
  %11 = load ptr, ptr %source, align 8
  %sub.ptr.lhs.cast = ptrtoint ptr %10 to i64
  %sub.ptr.rhs.cast = ptrtoint ptr %11 to i64
  %sub.ptr.sub = sub i64 %sub.ptr.lhs.cast, %sub.ptr.rhs.cast
  %cmp2 = icmp sge i64 %conv1, %sub.ptr.sub
  br i1 %cmp2, label %if.then, label %if.end

if.then:                                          ; preds = %while.body
  store i32 1, ptr %result, align 4
  br label %while.end

if.end:                                           ; preds = %while.body
  %12 = load ptr, ptr %source, align 8
  %13 = load i16, ptr %extraBytesToRead, align 2
  %conv3 = zext i16 %13 to i32
  %add = add nsw i32 %conv3, 1
  %call = call noundef zeroext i8 @_ZN4llvhL11isLegalUTF8EPKhi(ptr noundef %12, i32 noundef %add)
  %tobool = icmp ne i8 %call, 0
  br i1 %tobool, label %if.end5, label %if.then4

if.then4:                                         ; preds = %if.end
  store i32 3, ptr %result, align 4
  br label %while.end

if.end5:                                          ; preds = %if.end
  %14 = load i16, ptr %extraBytesToRead, align 2
  %conv6 = zext i16 %14 to i32
  switch i32 %conv6, label %sw.epilog [
    i32 5, label %sw.bb
    i32 4, label %sw.bb9
    i32 3, label %sw.bb14
    i32 2, label %sw.bb19
    i32 1, label %sw.bb24
    i32 0, label %sw.bb29
  ]

sw.bb:                                            ; preds = %if.end5
  %15 = load ptr, ptr %source, align 8
  %incdec.ptr = getelementptr inbounds i8, ptr %15, i32 1
  store ptr %incdec.ptr, ptr %source, align 8
  %16 = load i8, ptr %15, align 1
  %conv7 = zext i8 %16 to i32
  %17 = load i32, ptr %ch, align 4
  %add8 = add i32 %17, %conv7
  store i32 %add8, ptr %ch, align 4
  %18 = load i32, ptr %ch, align 4
  %shl = shl i32 %18, 6
  store i32 %shl, ptr %ch, align 4
  br label %sw.bb9

sw.bb9:                                           ; preds = %sw.bb, %if.end5
  %19 = load ptr, ptr %source, align 8
  %incdec.ptr10 = getelementptr inbounds i8, ptr %19, i32 1
  store ptr %incdec.ptr10, ptr %source, align 8
  %20 = load i8, ptr %19, align 1
  %conv11 = zext i8 %20 to i32
  %21 = load i32, ptr %ch, align 4
  %add12 = add i32 %21, %conv11
  store i32 %add12, ptr %ch, align 4
  %22 = load i32, ptr %ch, align 4
  %shl13 = shl i32 %22, 6
  store i32 %shl13, ptr %ch, align 4
  br label %sw.bb14

sw.bb14:                                          ; preds = %sw.bb9, %if.end5
  %23 = load ptr, ptr %source, align 8
  %incdec.ptr15 = getelementptr inbounds i8, ptr %23, i32 1
  store ptr %incdec.ptr15, ptr %source, align 8
  %24 = load i8, ptr %23, align 1
  %conv16 = zext i8 %24 to i32
  %25 = load i32, ptr %ch, align 4
  %add17 = add i32 %25, %conv16
  store i32 %add17, ptr %ch, align 4
  %26 = load i32, ptr %ch, align 4
  %shl18 = shl i32 %26, 6
  store i32 %shl18, ptr %ch, align 4
  br label %sw.bb19

sw.bb19:                                          ; preds = %sw.bb14, %if.end5
  %27 = load ptr, ptr %source, align 8
  %incdec.ptr20 = getelementptr inbounds i8, ptr %27, i32 1
  store ptr %incdec.ptr20, ptr %source, align 8
  %28 = load i8, ptr %27, align 1
  %conv21 = zext i8 %28 to i32
  %29 = load i32, ptr %ch, align 4
  %add22 = add i32 %29, %conv21
  store i32 %add22, ptr %ch, align 4
  %30 = load i32, ptr %ch, align 4
  %shl23 = shl i32 %30, 6
  store i32 %shl23, ptr %ch, align 4
  br label %sw.bb24

sw.bb24:                                          ; preds = %sw.bb19, %if.end5
  %31 = load ptr, ptr %source, align 8
  %incdec.ptr25 = getelementptr inbounds i8, ptr %31, i32 1
  store ptr %incdec.ptr25, ptr %source, align 8
  %32 = load i8, ptr %31, align 1
  %conv26 = zext i8 %32 to i32
  %33 = load i32, ptr %ch, align 4
  %add27 = add i32 %33, %conv26
  store i32 %add27, ptr %ch, align 4
  %34 = load i32, ptr %ch, align 4
  %shl28 = shl i32 %34, 6
  store i32 %shl28, ptr %ch, align 4
  br label %sw.bb29

sw.bb29:                                          ; preds = %sw.bb24, %if.end5
  %35 = load ptr, ptr %source, align 8
  %incdec.ptr30 = getelementptr inbounds i8, ptr %35, i32 1
  store ptr %incdec.ptr30, ptr %source, align 8
  %36 = load i8, ptr %35, align 1
  %conv31 = zext i8 %36 to i32
  %37 = load i32, ptr %ch, align 4
  %add32 = add i32 %37, %conv31
  store i32 %add32, ptr %ch, align 4
  br label %sw.epilog

sw.epilog:                                        ; preds = %sw.bb29, %if.end5
  %38 = load i16, ptr %extraBytesToRead, align 2
  %idxprom33 = zext i16 %38 to i64
  %arrayidx34 = getelementptr inbounds [6 x i32], ptr @_ZN4llvhL15offsetsFromUTF8E, i64 0, i64 %idxprom33
  %39 = load i32, ptr %arrayidx34, align 4
  %40 = load i32, ptr %ch, align 4
  %sub = sub i32 %40, %39
  store i32 %sub, ptr %ch, align 4
  %41 = load ptr, ptr %target, align 8
  %42 = load ptr, ptr %targetEnd.addr, align 8
  %cmp35 = icmp uge ptr %41, %42
  br i1 %cmp35, label %if.then36, label %if.end39

if.then36:                                        ; preds = %sw.epilog
  %43 = load i16, ptr %extraBytesToRead, align 2
  %conv37 = zext i16 %43 to i32
  %add38 = add nsw i32 %conv37, 1
  %44 = load ptr, ptr %source, align 8
  %idx.ext = sext i32 %add38 to i64
  %idx.neg = sub i64 0, %idx.ext
  %add.ptr = getelementptr inbounds i8, ptr %44, i64 %idx.neg
  store ptr %add.ptr, ptr %source, align 8
  store i32 2, ptr %result, align 4
  br label %while.end

if.end39:                                         ; preds = %sw.epilog
  %45 = load i32, ptr %ch, align 4
  %cmp40 = icmp ule i32 %45, 65535
  br i1 %cmp40, label %if.then41, label %if.else58

if.then41:                                        ; preds = %if.end39
  %46 = load i32, ptr %ch, align 4
  %cmp42 = icmp uge i32 %46, 55296
  br i1 %cmp42, label %land.lhs.true, label %if.else54

land.lhs.true:                                    ; preds = %if.then41
  %47 = load i32, ptr %ch, align 4
  %cmp43 = icmp ule i32 %47, 57343
  br i1 %cmp43, label %if.then44, label %if.else54

if.then44:                                        ; preds = %land.lhs.true
  %48 = load i32, ptr %flags.addr, align 4
  %cmp45 = icmp eq i32 %48, 0
  br i1 %cmp45, label %if.then46, label %if.else

if.then46:                                        ; preds = %if.then44
  %49 = load i16, ptr %extraBytesToRead, align 2
  %conv47 = zext i16 %49 to i32
  %add48 = add nsw i32 %conv47, 1
  %50 = load ptr, ptr %source, align 8
  %idx.ext49 = sext i32 %add48 to i64
  %idx.neg50 = sub i64 0, %idx.ext49
  %add.ptr51 = getelementptr inbounds i8, ptr %50, i64 %idx.neg50
  store ptr %add.ptr51, ptr %source, align 8
  store i32 3, ptr %result, align 4
  br label %while.end

if.else:                                          ; preds = %if.then44
  %51 = load ptr, ptr %target, align 8
  %incdec.ptr52 = getelementptr inbounds i16, ptr %51, i32 1
  store ptr %incdec.ptr52, ptr %target, align 8
  store i16 -3, ptr %51, align 2
  br label %if.end53

if.end53:                                         ; preds = %if.else
  br label %if.end57

if.else54:                                        ; preds = %land.lhs.true, %if.then41
  %52 = load i32, ptr %ch, align 4
  %conv55 = trunc i32 %52 to i16
  %53 = load ptr, ptr %target, align 8
  %incdec.ptr56 = getelementptr inbounds i16, ptr %53, i32 1
  store ptr %incdec.ptr56, ptr %target, align 8
  store i16 %conv55, ptr %53, align 2
  br label %if.end57

if.end57:                                         ; preds = %if.else54, %if.end53
  br label %if.end89

if.else58:                                        ; preds = %if.end39
  %54 = load i32, ptr %ch, align 4
  %cmp59 = icmp ugt i32 %54, 1114111
  br i1 %cmp59, label %if.then60, label %if.else71

if.then60:                                        ; preds = %if.else58
  %55 = load i32, ptr %flags.addr, align 4
  %cmp61 = icmp eq i32 %55, 0
  br i1 %cmp61, label %if.then62, label %if.else68

if.then62:                                        ; preds = %if.then60
  store i32 3, ptr %result, align 4
  %56 = load i16, ptr %extraBytesToRead, align 2
  %conv63 = zext i16 %56 to i32
  %add64 = add nsw i32 %conv63, 1
  %57 = load ptr, ptr %source, align 8
  %idx.ext65 = sext i32 %add64 to i64
  %idx.neg66 = sub i64 0, %idx.ext65
  %add.ptr67 = getelementptr inbounds i8, ptr %57, i64 %idx.neg66
  store ptr %add.ptr67, ptr %source, align 8
  br label %while.end

if.else68:                                        ; preds = %if.then60
  %58 = load ptr, ptr %target, align 8
  %incdec.ptr69 = getelementptr inbounds i16, ptr %58, i32 1
  store ptr %incdec.ptr69, ptr %target, align 8
  store i16 -3, ptr %58, align 2
  br label %if.end70

if.end70:                                         ; preds = %if.else68
  br label %if.end88

if.else71:                                        ; preds = %if.else58
  %59 = load ptr, ptr %target, align 8
  %add.ptr72 = getelementptr inbounds i16, ptr %59, i64 1
  %60 = load ptr, ptr %targetEnd.addr, align 8
  %cmp73 = icmp uge ptr %add.ptr72, %60
  br i1 %cmp73, label %if.then74, label %if.end80

if.then74:                                        ; preds = %if.else71
  %61 = load i16, ptr %extraBytesToRead, align 2
  %conv75 = zext i16 %61 to i32
  %add76 = add nsw i32 %conv75, 1
  %62 = load ptr, ptr %source, align 8
  %idx.ext77 = sext i32 %add76 to i64
  %idx.neg78 = sub i64 0, %idx.ext77
  %add.ptr79 = getelementptr inbounds i8, ptr %62, i64 %idx.neg78
  store ptr %add.ptr79, ptr %source, align 8
  store i32 2, ptr %result, align 4
  br label %while.end

if.end80:                                         ; preds = %if.else71
  %63 = load i32, ptr %ch, align 4
  %sub81 = sub i32 %63, 65536
  store i32 %sub81, ptr %ch, align 4
  %64 = load i32, ptr %ch, align 4
  %shr = lshr i32 %64, 10
  %add82 = add i32 %shr, 55296
  %conv83 = trunc i32 %add82 to i16
  %65 = load ptr, ptr %target, align 8
  %incdec.ptr84 = getelementptr inbounds i16, ptr %65, i32 1
  store ptr %incdec.ptr84, ptr %target, align 8
  store i16 %conv83, ptr %65, align 2
  %66 = load i32, ptr %ch, align 4
  %and = and i32 %66, 1023
  %add85 = add i32 %and, 56320
  %conv86 = trunc i32 %add85 to i16
  %67 = load ptr, ptr %target, align 8
  %incdec.ptr87 = getelementptr inbounds i16, ptr %67, i32 1
  store ptr %incdec.ptr87, ptr %target, align 8
  store i16 %conv86, ptr %67, align 2
  br label %if.end88

if.end88:                                         ; preds = %if.end80, %if.end70
  br label %if.end89

if.end89:                                         ; preds = %if.end88, %if.end57
  br label %while.cond, !llvm.loop !10

while.end:                                        ; preds = %if.then74, %if.then62, %if.then46, %if.then36, %if.then4, %if.then, %while.cond
  %68 = load ptr, ptr %source, align 8
  %69 = load ptr, ptr %sourceStart.addr, align 8
  store ptr %68, ptr %69, align 8
  %70 = load ptr, ptr %target, align 8
  %71 = load ptr, ptr %targetStart.addr, align 8
  store ptr %70, ptr %71, align 8
  %72 = load i32, ptr %result, align 4
  ret i32 %72
}