; Function Attrs: mustprogress nofree norecurse nosync nounwind memory(readwrite, inaccessiblemem: none) uwtable
define hidden noundef range(i32 0, 4) i32 @_ZN4llvh18ConvertUTF8toUTF16EPPKhS1_PPtS3_NS_15ConversionFlagsE(ptr noundef captures(none) %sourceStart, ptr noundef %sourceEnd, ptr noundef captures(none) %targetStart, ptr noundef readnone %targetEnd, i32 noundef %flags) local_unnamed_addr #0 {
entry:
  %0 = load ptr, ptr %sourceStart, align 8
  %1 = load ptr, ptr %targetStart, align 8
  %cmp68 = icmp ult ptr %0, %sourceEnd
  br i1 %cmp68, label %while.body.lr.ph, label %while.end

while.body.lr.ph:                                 ; preds = %entry
  %sub.ptr.lhs.cast = ptrtoint ptr %sourceEnd to i64
  %cmp61 = icmp eq i32 %flags, 0
  br label %while.body

while.body:                                       ; preds = %while.body.lr.ph, %if.end89
  %target.070 = phi ptr [ %1, %while.body.lr.ph ], [ %target.1, %if.end89 ]
  %source.069 = phi ptr [ %0, %while.body.lr.ph ], [ %source.2, %if.end89 ]
  %2 = load i8, ptr %source.069, align 1
  %idxprom = zext i8 %2 to i64
  %arrayidx = getelementptr inbounds nuw [256 x i8], ptr @_ZN4llvhL20trailingBytesForUTF8E, i64 0, i64 %idxprom
  %3 = load i8, ptr %arrayidx, align 1
  %conv = sext i8 %3 to i16
  %conv1 = zext i16 %conv to i64
  %sub.ptr.rhs.cast = ptrtoint ptr %source.069 to i64
  %sub.ptr.sub = sub i64 %sub.ptr.lhs.cast, %sub.ptr.rhs.cast
  %cmp2.not = icmp sgt i64 %sub.ptr.sub, %conv1
  br i1 %cmp2.not, label %if.end, label %while.end

if.end:                                           ; preds = %while.body
  %conv3 = zext i16 %conv to i32
  %add = add nuw nsw i32 %conv3, 1
  %call = tail call fastcc noundef zeroext i8 @_ZN4llvhL11isLegalUTF8EPKhi(ptr noundef nonnull %source.069, i32 noundef %add)
  %tobool.not = icmp eq i8 %call, 0
  br i1 %tobool.not, label %while.end, label %if.end5

if.end5:                                          ; preds = %if.end
  switch i8 %3, label %sw.epilog [
    i8 5, label %sw.bb
    i8 4, label %sw.bb9
    i8 3, label %sw.bb14
    i8 2, label %sw.bb19
    i8 1, label %sw.bb24
    i8 0, label %sw.bb29
  ]

sw.bb:                                            ; preds = %if.end5
  %incdec.ptr = getelementptr inbounds nuw i8, ptr %source.069, i64 1
  %conv7 = zext i8 %2 to i32
  %shl = shl nuw nsw i32 %conv7, 6
  %.pre = load i8, ptr %incdec.ptr, align 1
  br label %sw.bb9

sw.bb9:                                           ; preds = %sw.bb, %if.end5
  %4 = phi i8 [ %2, %if.end5 ], [ %.pre, %sw.bb ]
  %source.3 = phi ptr [ %source.069, %if.end5 ], [ %incdec.ptr, %sw.bb ]
  %ch.1 = phi i32 [ 0, %if.end5 ], [ %shl, %sw.bb ]
  %incdec.ptr10 = getelementptr inbounds nuw i8, ptr %source.3, i64 1
  %conv11 = zext i8 %4 to i32
  %add12 = add nuw nsw i32 %ch.1, %conv11
  %shl13 = shl nuw nsw i32 %add12, 6
  %.pre89 = load i8, ptr %incdec.ptr10, align 1
  br label %sw.bb14

sw.bb14:                                          ; preds = %sw.bb9, %if.end5
  %5 = phi i8 [ %2, %if.end5 ], [ %.pre89, %sw.bb9 ]
  %source.4 = phi ptr [ %source.069, %if.end5 ], [ %incdec.ptr10, %sw.bb9 ]
  %ch.2 = phi i32 [ 0, %if.end5 ], [ %shl13, %sw.bb9 ]
  %incdec.ptr15 = getelementptr inbounds nuw i8, ptr %source.4, i64 1
  %conv16 = zext i8 %5 to i32
  %add17 = add nuw nsw i32 %ch.2, %conv16
  %shl18 = shl nuw nsw i32 %add17, 6
  %.pre90 = load i8, ptr %incdec.ptr15, align 1
  br label %sw.bb19

sw.bb19:                                          ; preds = %sw.bb14, %if.end5
  %6 = phi i8 [ %2, %if.end5 ], [ %.pre90, %sw.bb14 ]
  %source.5 = phi ptr [ %source.069, %if.end5 ], [ %incdec.ptr15, %sw.bb14 ]
  %ch.3 = phi i32 [ 0, %if.end5 ], [ %shl18, %sw.bb14 ]
  %incdec.ptr20 = getelementptr inbounds nuw i8, ptr %source.5, i64 1
  %conv21 = zext i8 %6 to i32
  %add22 = add nuw nsw i32 %ch.3, %conv21
  %shl23 = shl i32 %add22, 6
  %.pre91 = load i8, ptr %incdec.ptr20, align 1
  br label %sw.bb24

sw.bb24:                                          ; preds = %sw.bb19, %if.end5
  %7 = phi i8 [ %2, %if.end5 ], [ %.pre91, %sw.bb19 ]
  %source.6 = phi ptr [ %source.069, %if.end5 ], [ %incdec.ptr20, %sw.bb19 ]
  %ch.4 = phi i32 [ 0, %if.end5 ], [ %shl23, %sw.bb19 ]
  %incdec.ptr25 = getelementptr inbounds nuw i8, ptr %source.6, i64 1
  %conv26 = zext i8 %7 to i32
  %add27 = add i32 %ch.4, %conv26
  %shl28 = shl i32 %add27, 6
  %.pre92 = load i8, ptr %incdec.ptr25, align 1
  br label %sw.bb29

sw.bb29:                                          ; preds = %sw.bb24, %if.end5
  %8 = phi i8 [ %2, %if.end5 ], [ %.pre92, %sw.bb24 ]
  %source.7 = phi ptr [ %source.069, %if.end5 ], [ %incdec.ptr25, %sw.bb24 ]
  %ch.5 = phi i32 [ 0, %if.end5 ], [ %shl28, %sw.bb24 ]
  %incdec.ptr30 = getelementptr inbounds nuw i8, ptr %source.7, i64 1
  %conv31 = zext i8 %8 to i32
  %add32 = add i32 %ch.5, %conv31
  br label %sw.epilog

sw.epilog:                                        ; preds = %sw.bb29, %if.end5
  %source.2 = phi ptr [ %source.069, %if.end5 ], [ %incdec.ptr30, %sw.bb29 ]
  %ch.0 = phi i32 [ 0, %if.end5 ], [ %add32, %sw.bb29 ]
  %arrayidx34 = getelementptr inbounds nuw [6 x i32], ptr @_ZN4llvhL15offsetsFromUTF8E, i64 0, i64 %conv1
  %9 = load i32, ptr %arrayidx34, align 4
  %sub = sub i32 %ch.0, %9
  %cmp35.not = icmp ult ptr %target.070, %targetEnd
  br i1 %cmp35.not, label %if.end39, label %if.then36

if.then36:                                        ; preds = %sw.epilog
  %idx.ext = zext nneg i32 %add to i64
  %idx.neg = sub nsw i64 0, %idx.ext
  %add.ptr = getelementptr inbounds i8, ptr %source.2, i64 %idx.neg
  br label %while.end

if.end39:                                         ; preds = %sw.epilog
  %cmp40 = icmp ult i32 %sub, 65536
  br i1 %cmp40, label %if.then41, label %if.else58

if.then41:                                        ; preds = %if.end39
  %10 = and i32 %sub, 63488
  %or.cond = icmp eq i32 %10, 55296
  br i1 %or.cond, label %if.then44, label %if.else54

if.then44:                                        ; preds = %if.then41
  br i1 %cmp61, label %if.then46, label %if.else

if.then46:                                        ; preds = %if.then44
  %idx.ext49 = zext nneg i32 %add to i64
  %idx.neg50 = sub nsw i64 0, %idx.ext49
  %add.ptr51 = getelementptr inbounds i8, ptr %source.2, i64 %idx.neg50
  br label %while.end

if.else:                                          ; preds = %if.then44
  %incdec.ptr52 = getelementptr inbounds nuw i8, ptr %target.070, i64 2
  store i16 -3, ptr %target.070, align 2
  br label %if.end89

if.else54:                                        ; preds = %if.then41
  %conv55 = trunc nuw i32 %sub to i16
  %incdec.ptr56 = getelementptr inbounds nuw i8, ptr %target.070, i64 2
  store i16 %conv55, ptr %target.070, align 2
  br label %if.end89

if.else58:                                        ; preds = %if.end39
  %cmp59 = icmp ugt i32 %sub, 1114111
  br i1 %cmp59, label %if.then60, label %if.else71

if.then60:                                        ; preds = %if.else58
  br i1 %cmp61, label %if.then62, label %if.else68

if.then62:                                        ; preds = %if.then60
  %idx.ext65 = zext nneg i32 %add to i64
  %idx.neg66 = sub nsw i64 0, %idx.ext65
  %add.ptr67 = getelementptr inbounds i8, ptr %source.2, i64 %idx.neg66
  br label %while.end

if.else68:                                        ; preds = %if.then60
  %incdec.ptr69 = getelementptr inbounds nuw i8, ptr %target.070, i64 2
  store i16 -3, ptr %target.070, align 2
  br label %if.end89

if.else71:                                        ; preds = %if.else58
  %add.ptr72 = getelementptr inbounds nuw i8, ptr %target.070, i64 2
  %cmp73.not = icmp ult ptr %add.ptr72, %targetEnd
  br i1 %cmp73.not, label %if.end80, label %if.then74

if.then74:                                        ; preds = %if.else71
  %idx.ext77 = zext nneg i32 %add to i64
  %idx.neg78 = sub nsw i64 0, %idx.ext77
  %add.ptr79 = getelementptr inbounds i8, ptr %source.2, i64 %idx.neg78
  br label %while.end

if.end80:                                         ; preds = %if.else71
  %sub81 = add nuw nsw i32 %sub, 67043328
  %shr = lshr i32 %sub81, 10
  %11 = trunc i32 %shr to i16
  %conv83 = add nuw nsw i16 %11, -10240
  store i16 %conv83, ptr %target.070, align 2
  %12 = trunc i32 %sub to i16
  %13 = and i16 %12, 1023
  %conv86 = or disjoint i16 %13, -9216
  %incdec.ptr87 = getelementptr inbounds nuw i8, ptr %target.070, i64 4
  store i16 %conv86, ptr %add.ptr72, align 2
  br label %if.end89

if.end89:                                         ; preds = %if.else68, %if.end80, %if.else, %if.else54
  %target.1 = phi ptr [ %incdec.ptr52, %if.else ], [ %incdec.ptr56, %if.else54 ], [ %incdec.ptr69, %if.else68 ], [ %incdec.ptr87, %if.end80 ]
  %cmp = icmp ult ptr %source.2, %sourceEnd
  br i1 %cmp, label %while.body, label %while.end, !llvm.loop !10

while.end:                                        ; preds = %if.end89, %while.body, %if.end, %entry, %if.then74, %if.then62, %if.then46, %if.then36
  %target.057 = phi ptr [ %target.070, %if.then36 ], [ %target.070, %if.then46 ], [ %target.070, %if.then62 ], [ %target.070, %if.then74 ], [ %1, %entry ], [ %target.1, %if.end89 ], [ %target.070, %while.body ], [ %target.070, %if.end ]
  %source.1 = phi ptr [ %add.ptr, %if.then36 ], [ %add.ptr51, %if.then46 ], [ %add.ptr67, %if.then62 ], [ %add.ptr79, %if.then74 ], [ %0, %entry ], [ %source.2, %if.end89 ], [ %source.069, %while.body ], [ %source.069, %if.end ]
  %result.0 = phi i32 [ 2, %if.then36 ], [ 3, %if.then46 ], [ 3, %if.then62 ], [ 2, %if.then74 ], [ 0, %entry ], [ 0, %if.end89 ], [ 1, %while.body ], [ 3, %if.end ]
  store ptr %source.1, ptr %sourceStart, align 8
  store ptr %target.057, ptr %targetStart, align 8
  ret i32 %result.0
}